target datalayout = "e-m:e-p270:32:32-p271:32:32-p272:64:64-i64:64-i128:128-f80:128-n8:16:32:64-S128"
target triple = "x86_64-pc-linux-gnu"

%struct._object = type { %union.anon, ptr }
%union.anon = type { i64 }
%struct.StgInfo = type { i32, i64, i64, i64, %struct._ffi_type, ptr, ptr, ptr, ptr, ptr, ptr, ptr, ptr, ptr, i32, ptr, i32, ptr }
%struct._ffi_type = type { i64, i16, i16, ptr }
%struct.anon = type { i32, i32 }

; Function Attrs: alwaysinline nounwind uwtable
define internal void @Py_INCREF(ptr noundef %0) #7 {
  %2 = alloca ptr, align 8
  %3 = alloca i32, align 4
  %4 = alloca i32, align 4
  store ptr %0, ptr %2, align 8, !tbaa !28
  call void @llvm.lifetime.start.p0(i64 4, ptr %3) #9
  %5 = load ptr, ptr %2, align 8, !tbaa !28
  %6 = getelementptr inbounds nuw %struct._object, ptr %5, i32 0, i32 0
  %7 = getelementptr inbounds nuw %struct.anon, ptr %6, i32 0, i32 0
  %8 = load i32, ptr %7, align 8, !tbaa !70
  store i32 %8, ptr %3, align 4, !tbaa !29
  %9 = load i32, ptr %3, align 4, !tbaa !29
  %10 = icmp slt i32 %9, 0
  br i1 %10, label %11, label %12

11:                                               ; preds = %1
  store i32 1, ptr %4, align 4
  br label %18

12:                                               ; preds = %1
  %13 = load i32, ptr %3, align 4, !tbaa !29
  %14 = add i32 %13, 1
  %15 = load ptr, ptr %2, align 8, !tbaa !28
  %16 = getelementptr inbounds nuw %struct._object, ptr %15, i32 0, i32 0
  %17 = getelementptr inbounds nuw %struct.anon, ptr %16, i32 0, i32 0
  store i32 %14, ptr %17, align 8, !tbaa !70
  store i32 0, ptr %4, align 4
  br label %18

18:                                               ; preds = %12, %11
  call void @llvm.lifetime.end.p0(i64 4, ptr %3) #9
  %19 = load i32, ptr %4, align 4
  switch i32 %19, label %21 [
    i32 0, label %20
    i32 1, label %20
  ]

20:                                               ; preds = %18, %18
  ret void

21:                                               ; preds = %18
  unreachable
}

; Function Attrs: inlinehint nounwind uwtable
define internal void @Py_XINCREF(ptr noundef %0) #4 {
  %2 = alloca ptr, align 8
  store ptr %0, ptr %2, align 8, !tbaa !28
  %3 = load ptr, ptr %2, align 8, !tbaa !28
  %4 = icmp ne ptr %3, null
  br i1 %4, label %5, label %7

5:                                                ; preds = %1
  %6 = load ptr, ptr %2, align 8, !tbaa !28
  call void @Py_INCREF(ptr noundef %6)
  br label %7

7:                                                ; preds = %5, %1
  ret void
}

; Function Attrs: nounwind uwtable
define hidden i32 @PyCStgInfo_clone(ptr noundef %0, ptr noundef %1) #0 {
  %3 = alloca i32, align 4
  %4 = alloca ptr, align 8
  %5 = alloca ptr, align 8
  %6 = alloca i64, align 8
  %7 = alloca i32, align 4
  store ptr %0, ptr %4, align 8, !tbaa !3
  store ptr %1, ptr %5, align 8, !tbaa !3
  call void @llvm.lifetime.start.p0(i64 8, ptr %6) #9
  %8 = load ptr, ptr %4, align 8, !tbaa !3
  call void @ctype_clear_stginfo(ptr noundef %8)
  %9 = load ptr, ptr %4, align 8, !tbaa !3
  %10 = getelementptr inbounds nuw %struct.StgInfo, ptr %9, i32 0, i32 4
  %11 = getelementptr inbounds nuw %struct._ffi_type, ptr %10, i32 0, i32 3
  %12 = load ptr, ptr %11, align 8, !tbaa !7
  call void @PyMem_Free(ptr noundef %12)
  %13 = load ptr, ptr %4, align 8, !tbaa !3
  %14 = getelementptr inbounds nuw %struct.StgInfo, ptr %13, i32 0, i32 15
  %15 = load ptr, ptr %14, align 8, !tbaa !17
  call void @PyMem_Free(ptr noundef %15)
  %16 = load ptr, ptr %4, align 8, !tbaa !3
  %17 = getelementptr inbounds nuw %struct.StgInfo, ptr %16, i32 0, i32 15
  store ptr null, ptr %17, align 8, !tbaa !17
  %18 = load ptr, ptr %4, align 8, !tbaa !3
  %19 = getelementptr inbounds nuw %struct.StgInfo, ptr %18, i32 0, i32 17
  %20 = load ptr, ptr %19, align 8, !tbaa !18
  call void @PyMem_Free(ptr noundef %20)
  %21 = load ptr, ptr %4, align 8, !tbaa !3
  %22 = getelementptr inbounds nuw %struct.StgInfo, ptr %21, i32 0, i32 17
  store ptr null, ptr %22, align 8, !tbaa !18
  %23 = load ptr, ptr %4, align 8, !tbaa !3
  %24 = getelementptr inbounds nuw %struct.StgInfo, ptr %23, i32 0, i32 4
  %25 = getelementptr inbounds nuw %struct._ffi_type, ptr %24, i32 0, i32 3
  store ptr null, ptr %25, align 8, !tbaa !7
  %26 = load ptr, ptr %4, align 8, !tbaa !3
  %27 = load ptr, ptr %5, align 8, !tbaa !3
  call void @llvm.memcpy.p0.p0.i64(ptr align 8 %26, ptr align 8 %27, i64 160, i1 false)
  %28 = load ptr, ptr %4, align 8, !tbaa !3
  %29 = getelementptr inbounds nuw %struct.StgInfo, ptr %28, i32 0, i32 5
  %30 = load ptr, ptr %29, align 8, !tbaa !19
  call void @Py_XINCREF(ptr noundef %30)
  %31 = load ptr, ptr %4, align 8, !tbaa !3
  %32 = getelementptr inbounds nuw %struct.StgInfo, ptr %31, i32 0, i32 9
  %33 = load ptr, ptr %32, align 8, !tbaa !20
  call void @Py_XINCREF(ptr noundef %33)
  %34 = load ptr, ptr %4, align 8, !tbaa !3
  %35 = getelementptr inbounds nuw %struct.StgInfo, ptr %34, i32 0, i32 10
  %36 = load ptr, ptr %35, align 8, !tbaa !21
  call void @Py_XINCREF(ptr noundef %36)
  %37 = load ptr, ptr %4, align 8, !tbaa !3
  %38 = getelementptr inbounds nuw %struct.StgInfo, ptr %37, i32 0, i32 11
  %39 = load ptr, ptr %38, align 8, !tbaa !22
  call void @Py_XINCREF(ptr noundef %39)
  %40 = load ptr, ptr %4, align 8, !tbaa !3
  %41 = getelementptr inbounds nuw %struct.StgInfo, ptr %40, i32 0, i32 12
  %42 = load ptr, ptr %41, align 8, !tbaa !23
  call void @Py_XINCREF(ptr noundef %42)
  %43 = load ptr, ptr %4, align 8, !tbaa !3
  %44 = getelementptr inbounds nuw %struct.StgInfo, ptr %43, i32 0, i32 13
  %45 = load ptr, ptr %44, align 8, !tbaa !24
  call void @Py_XINCREF(ptr noundef %45)
  %46 = load ptr, ptr %5, align 8, !tbaa !3
  %47 = getelementptr inbounds nuw %struct.StgInfo, ptr %46, i32 0, i32 15
  %48 = load ptr, ptr %47, align 8, !tbaa !17
  %49 = icmp ne ptr %48, null
  br i1 %49, label %50, label %73

50:                                               ; preds = %2
  %51 = load ptr, ptr %5, align 8, !tbaa !3
  %52 = getelementptr inbounds nuw %struct.StgInfo, ptr %51, i32 0, i32 15
  %53 = load ptr, ptr %52, align 8, !tbaa !17
  %54 = call i64 @strlen(ptr noundef %53) #10
  %55 = add i64 %54, 1
  %56 = call ptr @PyMem_Malloc(i64 noundef %55)
  %57 = load ptr, ptr %4, align 8, !tbaa !3
  %58 = getelementptr inbounds nuw %struct.StgInfo, ptr %57, i32 0, i32 15
  store ptr %56, ptr %58, align 8, !tbaa !17
  %59 = load ptr, ptr %4, align 8, !tbaa !3
  %60 = getelementptr inbounds nuw %struct.StgInfo, ptr %59, i32 0, i32 15
  %61 = load ptr, ptr %60, align 8, !tbaa !17
  %62 = icmp eq ptr %61, null
  br i1 %62, label %63, label %65

63:                                               ; preds = %50
  %64 = call ptr @PyErr_NoMemory()
  store i32 -1, ptr %3, align 4
  store i32 1, ptr %7, align 4
  br label %140

65:                                               ; preds = %50
  %66 = load ptr, ptr %4, align 8, !tbaa !3
  %67 = getelementptr inbounds nuw %struct.StgInfo, ptr %66, i32 0, i32 15
  %68 = load ptr, ptr %67, align 8, !tbaa !17
  %69 = load ptr, ptr %5, align 8, !tbaa !3
  %70 = getelementptr inbounds nuw %struct.StgInfo, ptr %69, i32 0, i32 15
  %71 = load ptr, ptr %70, align 8, !tbaa !17
  %72 = call ptr @strcpy(ptr noundef %68, ptr noundef %71) #9
  br label %73

73:                                               ; preds = %65, %2
  %74 = load ptr, ptr %5, align 8, !tbaa !3
  %75 = getelementptr inbounds nuw %struct.StgInfo, ptr %74, i32 0, i32 17
  %76 = load ptr, ptr %75, align 8, !tbaa !18
  %77 = icmp ne ptr %76, null
  br i1 %77, label %78, label %105

78:                                               ; preds = %73
  %79 = load ptr, ptr %5, align 8, !tbaa !3
  %80 = getelementptr inbounds nuw %struct.StgInfo, ptr %79, i32 0, i32 16
  %81 = load i32, ptr %80, align 8, !tbaa !25
  %82 = sext i32 %81 to i64
  %83 = mul i64 8, %82
  %84 = call ptr @PyMem_Malloc(i64 noundef %83)
  %85 = load ptr, ptr %4, align 8, !tbaa !3
  %86 = getelementptr inbounds nuw %struct.StgInfo, ptr %85, i32 0, i32 17
  store ptr %84, ptr %86, align 8, !tbaa !18
  %87 = load ptr, ptr %4, align 8, !tbaa !3
  %88 = getelementptr inbounds nuw %struct.StgInfo, ptr %87, i32 0, i32 17
  %89 = load ptr, ptr %88, align 8, !tbaa !18
  %90 = icmp eq ptr %89, null
  br i1 %90, label %91, label %93

91:                                               ; preds = %78
  %92 = call ptr @PyErr_NoMemory()
  store i32 -1, ptr %3, align 4
  store i32 1, ptr %7, align 4
  br label %140

93:                                               ; preds = %78
  %94 = load ptr, ptr %4, align 8, !tbaa !3
  %95 = getelementptr inbounds nuw %struct.StgInfo, ptr %94, i32 0, i32 17
  %96 = load ptr, ptr %95, align 8, !tbaa !18
  %97 = load ptr, ptr %5, align 8, !tbaa !3
  %98 = getelementptr inbounds nuw %struct.StgInfo, ptr %97, i32 0, i32 17
  %99 = load ptr, ptr %98, align 8, !tbaa !18
  %100 = load ptr, ptr %5, align 8, !tbaa !3
  %101 = getelementptr inbounds nuw %struct.StgInfo, ptr %100, i32 0, i32 16
  %102 = load i32, ptr %101, align 8, !tbaa !25
  %103 = sext i32 %102 to i64
  %104 = mul i64 8, %103
  call void @llvm.memcpy.p0.p0.i64(ptr align 8 %96, ptr align 8 %99, i64 %104, i1 false)
  br label %105

105:                                              ; preds = %93, %73
  %106 = load ptr, ptr %5, align 8, !tbaa !3
  %107 = getelementptr inbounds nuw %struct.StgInfo, ptr %106, i32 0, i32 4
  %108 = getelementptr inbounds nuw %struct._ffi_type, ptr %107, i32 0, i32 3
  %109 = load ptr, ptr %108, align 8, !tbaa !7
  %110 = icmp eq ptr %109, null
  br i1 %110, label %111, label %112

111:                                              ; preds = %105
  store i32 0, ptr %3, align 4
  store i32 1, ptr %7, align 4
  br label %140

112:                                              ; preds = %105
  %113 = load ptr, ptr %5, align 8, !tbaa !3
  %114 = getelementptr inbounds nuw %struct.StgInfo, ptr %113, i32 0, i32 3
  %115 = load i64, ptr %114, align 8, !tbaa !26
  %116 = add i64 %115, 1
  %117 = mul i64 8, %116
  store i64 %117, ptr %6, align 8, !tbaa !27
  %118 = load i64, ptr %6, align 8, !tbaa !27
  %119 = call ptr @PyMem_Malloc(i64 noundef %118)
  %120 = load ptr, ptr %4, align 8, !tbaa !3
  %121 = getelementptr inbounds nuw %struct.StgInfo, ptr %120, i32 0, i32 4
  %122 = getelementptr inbounds nuw %struct._ffi_type, ptr %121, i32 0, i32 3
  store ptr %119, ptr %122, align 8, !tbaa !7
  %123 = load ptr, ptr %4, align 8, !tbaa !3
  %124 = getelementptr inbounds nuw %struct.StgInfo, ptr %123, i32 0, i32 4
  %125 = getelementptr inbounds nuw %struct._ffi_type, ptr %124, i32 0, i32 3
  %126 = load ptr, ptr %125, align 8, !tbaa !7
  %127 = icmp eq ptr %126, null
  br i1 %127, label %128, label %130

128:                                              ; preds = %112
  %129 = call ptr @PyErr_NoMemory()
  store i32 -1, ptr %3, align 4
  store i32 1, ptr %7, align 4
  br label %140

130:                                              ; preds = %112
  %131 = load ptr, ptr %4, align 8, !tbaa !3
  %132 = getelementptr inbounds nuw %struct.StgInfo, ptr %131, i32 0, i32 4
  %133 = getelementptr inbounds nuw %struct._ffi_type, ptr %132, i32 0, i32 3
  %134 = load ptr, ptr %133, align 8, !tbaa !7
  %135 = load ptr, ptr %5, align 8, !tbaa !3
  %136 = getelementptr inbounds nuw %struct.StgInfo, ptr %135, i32 0, i32 4
  %137 = getelementptr inbounds nuw %struct._ffi_type, ptr %136, i32 0, i32 3
  %138 = load ptr, ptr %137, align 8, !tbaa !7
  %139 = load i64, ptr %6, align 8, !tbaa !27
  call void @llvm.memcpy.p0.p0.i64(ptr align 8 %134, ptr align 8 %138, i64 %139, i1 false)
  store i32 0, ptr %3, align 4
  store i32 1, ptr %7, align 4
  br label %140

140:                                              ; preds = %130, %128, %111, %91, %63
  call void @llvm.lifetime.end.p0(i64 8, ptr %6) #9
  %141 = load i32, ptr %3, align 4
  ret i32 %141
}