; Function Attrs: nounwind uwtable
define hidden range(i32 -1, 1) i32 @PyCStgInfo_clone(ptr noundef %0, ptr noundef readonly captures(none) %1) local_unnamed_addr #0 {
  tail call void @ctype_clear_stginfo(ptr noundef %0) #8
  %3 = getelementptr inbounds nuw i8, ptr %0, i64 48
  %4 = load ptr, ptr %3, align 8, !tbaa !3
  tail call void @PyMem_Free(ptr noundef %4) #8
  %5 = getelementptr inbounds nuw i8, ptr %0, i64 136
  %6 = load ptr, ptr %5, align 8, !tbaa !16
  tail call void @PyMem_Free(ptr noundef %6) #8
  store ptr null, ptr %5, align 8, !tbaa !16
  %7 = getelementptr inbounds nuw i8, ptr %0, i64 152
  %8 = load ptr, ptr %7, align 8, !tbaa !17
  tail call void @PyMem_Free(ptr noundef %8) #8
  store ptr null, ptr %7, align 8, !tbaa !17
  store ptr null, ptr %3, align 8, !tbaa !3
  tail call void @llvm.memcpy.p0.p0.i64(ptr noundef nonnull align 8 dereferenceable(160) %0, ptr noundef nonnull align 8 dereferenceable(160) %1, i64 160, i1 false)
  %9 = getelementptr inbounds nuw i8, ptr %0, i64 56
  %10 = load ptr, ptr %9, align 8, !tbaa !18
  %.not.i = icmp eq ptr %10, null
  br i1 %.not.i, label %Py_XINCREF.exit, label %11

11:                                               ; preds = %2
  %12 = load i32, ptr %10, align 8, !tbaa !19
  %13 = icmp slt i32 %12, 0
  br i1 %13, label %Py_XINCREF.exit, label %14

14:                                               ; preds = %11
  %15 = add nuw i32 %12, 1
  store i32 %15, ptr %10, align 8, !tbaa !19
  br label %Py_XINCREF.exit

Py_XINCREF.exit:                                  ; preds = %2, %11, %14
  %16 = getelementptr inbounds nuw i8, ptr %0, i64 88
  %17 = load ptr, ptr %16, align 8, !tbaa !20
  %.not.i41 = icmp eq ptr %17, null
  br i1 %.not.i41, label %Py_XINCREF.exit42, label %18

18:                                               ; preds = %Py_XINCREF.exit
  %19 = load i32, ptr %17, align 8, !tbaa !19
  %20 = icmp slt i32 %19, 0
  br i1 %20, label %Py_XINCREF.exit42, label %21

21:                                               ; preds = %18
  %22 = add nuw i32 %19, 1
  store i32 %22, ptr %17, align 8, !tbaa !19
  br label %Py_XINCREF.exit42

Py_XINCREF.exit42:                                ; preds = %Py_XINCREF.exit, %18, %21
  %23 = getelementptr inbounds nuw i8, ptr %0, i64 96
  %24 = load ptr, ptr %23, align 8, !tbaa !21
  %.not.i43 = icmp eq ptr %24, null
  br i1 %.not.i43, label %Py_XINCREF.exit44, label %25

25:                                               ; preds = %Py_XINCREF.exit42
  %26 = load i32, ptr %24, align 8, !tbaa !19
  %27 = icmp slt i32 %26, 0
  br i1 %27, label %Py_XINCREF.exit44, label %28

28:                                               ; preds = %25
  %29 = add nuw i32 %26, 1
  store i32 %29, ptr %24, align 8, !tbaa !19
  br label %Py_XINCREF.exit44

Py_XINCREF.exit44:                                ; preds = %Py_XINCREF.exit42, %25, %28
  %30 = getelementptr inbounds nuw i8, ptr %0, i64 104
  %31 = load ptr, ptr %30, align 8, !tbaa !22
  %.not.i45 = icmp eq ptr %31, null
  br i1 %.not.i45, label %Py_XINCREF.exit46, label %32

32:                                               ; preds = %Py_XINCREF.exit44
  %33 = load i32, ptr %31, align 8, !tbaa !19
  %34 = icmp slt i32 %33, 0
  br i1 %34, label %Py_XINCREF.exit46, label %35

35:                                               ; preds = %32
  %36 = add nuw i32 %33, 1
  store i32 %36, ptr %31, align 8, !tbaa !19
  br label %Py_XINCREF.exit46

Py_XINCREF.exit46:                                ; preds = %Py_XINCREF.exit44, %32, %35
  %37 = getelementptr inbounds nuw i8, ptr %0, i64 112
  %38 = load ptr, ptr %37, align 8, !tbaa !23
  %.not.i47 = icmp eq ptr %38, null
  br i1 %.not.i47, label %Py_XINCREF.exit48, label %39

39:                                               ; preds = %Py_XINCREF.exit46
  %40 = load i32, ptr %38, align 8, !tbaa !19
  %41 = icmp slt i32 %40, 0
  br i1 %41, label %Py_XINCREF.exit48, label %42

42:                                               ; preds = %39
  %43 = add nuw i32 %40, 1
  store i32 %43, ptr %38, align 8, !tbaa !19
  br label %Py_XINCREF.exit48

Py_XINCREF.exit48:                                ; preds = %Py_XINCREF.exit46, %39, %42
  %44 = getelementptr inbounds nuw i8, ptr %0, i64 120
  %45 = load ptr, ptr %44, align 8, !tbaa !24
  %.not.i49 = icmp eq ptr %45, null
  br i1 %.not.i49, label %Py_XINCREF.exit50, label %46

46:                                               ; preds = %Py_XINCREF.exit48
  %47 = load i32, ptr %45, align 8, !tbaa !19
  %48 = icmp slt i32 %47, 0
  br i1 %48, label %Py_XINCREF.exit50, label %49

49:                                               ; preds = %46
  %50 = add nuw i32 %47, 1
  store i32 %50, ptr %45, align 8, !tbaa !19
  br label %Py_XINCREF.exit50

Py_XINCREF.exit50:                                ; preds = %Py_XINCREF.exit48, %46, %49
  %51 = getelementptr inbounds nuw i8, ptr %1, i64 136
  %52 = load ptr, ptr %51, align 8, !tbaa !16
  %.not = icmp eq ptr %52, null
  br i1 %.not, label %63, label %53

53:                                               ; preds = %Py_XINCREF.exit50
  %54 = tail call i64 @strlen(ptr noundef nonnull dereferenceable(1) %52) #9
  %55 = add i64 %54, 1
  %56 = tail call ptr @PyMem_Malloc(i64 noundef %55) #8
  store ptr %56, ptr %5, align 8, !tbaa !16
  %57 = icmp eq ptr %56, null
  br i1 %57, label %58, label %60

58:                                               ; preds = %53
  %59 = tail call ptr @PyErr_NoMemory() #8
  br label %95

60:                                               ; preds = %53
  %61 = load ptr, ptr %51, align 8, !tbaa !16
  %62 = tail call ptr @strcpy(ptr noundef nonnull dereferenceable(1) %56, ptr noundef nonnull dereferenceable(1) %61) #8
  br label %63

63:                                               ; preds = %60, %Py_XINCREF.exit50
  %64 = getelementptr inbounds nuw i8, ptr %1, i64 152
  %65 = load ptr, ptr %64, align 8, !tbaa !17
  %.not40 = icmp eq ptr %65, null
  br i1 %.not40, label %80, label %66

66:                                               ; preds = %63
  %67 = getelementptr inbounds nuw i8, ptr %1, i64 144
  %68 = load i32, ptr %67, align 8, !tbaa !25
  %69 = sext i32 %68 to i64
  %70 = shl nsw i64 %69, 3
  %71 = tail call ptr @PyMem_Malloc(i64 noundef %70) #8
  store ptr %71, ptr %7, align 8, !tbaa !17
  %72 = icmp eq ptr %71, null
  br i1 %72, label %73, label %75

73:                                               ; preds = %66
  %74 = tail call ptr @PyErr_NoMemory() #8
  br label %95

75:                                               ; preds = %66
  %76 = load ptr, ptr %64, align 8, !tbaa !17
  %77 = load i32, ptr %67, align 8, !tbaa !25
  %78 = sext i32 %77 to i64
  %79 = shl nsw i64 %78, 3
  tail call void @llvm.memcpy.p0.p0.i64(ptr nonnull align 8 %71, ptr align 8 %76, i64 %79, i1 false)
  br label %80

80:                                               ; preds = %75, %63
  %81 = getelementptr inbounds nuw i8, ptr %1, i64 48
  %82 = load ptr, ptr %81, align 8, !tbaa !3
  %83 = icmp eq ptr %82, null
  br i1 %83, label %95, label %84

84:                                               ; preds = %80
  %85 = getelementptr inbounds nuw i8, ptr %1, i64 24
  %86 = load i64, ptr %85, align 8, !tbaa !26
  %87 = shl i64 %86, 3
  %88 = add i64 %87, 8
  %89 = tail call ptr @PyMem_Malloc(i64 noundef %88) #8
  store ptr %89, ptr %3, align 8, !tbaa !3
  %90 = icmp eq ptr %89, null
  br i1 %90, label %91, label %93

91:                                               ; preds = %84
  %92 = tail call ptr @PyErr_NoMemory() #8
  br label %95

93:                                               ; preds = %84
  %94 = load ptr, ptr %81, align 8, !tbaa !3
  tail call void @llvm.memcpy.p0.p0.i64(ptr nonnull align 8 %89, ptr align 8 %94, i64 %88, i1 false)
  br label %95

95:                                               ; preds = %80, %93, %91, %73, %58
  %.0 = phi i32 [ -1, %58 ], [ -1, %73 ], [ -1, %91 ], [ 0, %93 ], [ 0, %80 ]
  ret i32 %.0
}